target datalayout = "e-m:e-p270:32:32-p271:32:32-p272:64:64-i64:64-i128:128-f80:128-n8:16:32:64-S128"
target triple = "x86_64-pc-linux-gnu"

; Function Attrs: nounwind uwtable
define i32 @minimalInitialFlip(ptr noundef %0, i32 noundef %1, ptr noundef %2) #0 {
  %4 = alloca i32, align 4
  %5 = alloca ptr, align 8
  %6 = alloca i32, align 4
  %7 = alloca ptr, align 8
  %8 = alloca i64, align 8
  %9 = alloca i32, align 4
  store ptr %0, ptr %5, align 8, !tbaa !3
  store i32 %1, ptr %6, align 4, !tbaa !8
  store ptr %2, ptr %7, align 8, !tbaa !32
  call void @llvm.lifetime.start.p0(i64 8, ptr %8) #7
  store i64 1, ptr %8, align 8, !tbaa !10
  %10 = load ptr, ptr %5, align 8, !tbaa !3
  %11 = load i32, ptr %6, align 4, !tbaa !8
  %12 = call i32 @Kit_TruthWordNum_64bit(i32 noundef %11)
  %13 = sub nsw i32 %12, 1
  %14 = sext i32 %13 to i64
  %15 = getelementptr inbounds i64, ptr %10, i64 %14
  %16 = load i64, ptr %15, align 8, !tbaa !10
  %17 = lshr i64 %16, 63
  %18 = load i64, ptr %8, align 8, !tbaa !10
  %19 = and i64 %17, %18
  %20 = icmp ne i64 %19, 0
  br i1 %20, label %21, label %29

21:                                               ; preds = %3
  %22 = load ptr, ptr %5, align 8, !tbaa !3
  %23 = load i32, ptr %6, align 4, !tbaa !8
  call void @Kit_TruthNot_64bit(ptr noundef %22, i32 noundef %23)
  %24 = load i32, ptr %6, align 4, !tbaa !8
  %25 = shl i32 1, %24
  %26 = load ptr, ptr %7, align 8, !tbaa !32
  %27 = load i32, ptr %26, align 4, !tbaa !8
  %28 = xor i32 %27, %25
  store i32 %28, ptr %26, align 4, !tbaa !8
  store i32 1, ptr %4, align 4
  store i32 1, ptr %9, align 4
  br label %30

29:                                               ; preds = %3
  store i32 0, ptr %4, align 4
  store i32 1, ptr %9, align 4
  br label %30

30:                                               ; preds = %29, %21
  call void @llvm.lifetime.end.p0(i64 8, ptr %8) #7
  %31 = load i32, ptr %4, align 4
  ret i32 %31
}